; Function Attrs: inlinehint nounwind uwtable
define internal fastcc void @pmix_bfrops_base_tma_value_free(ptr noundef %0, i64 noundef %1, ptr noundef %2) unnamed_addr #4 {
  %.not = icmp eq ptr %0, null
  br i1 %.not, label %pmix_tma_free.exit, label %.preheader

.preheader:                                       ; preds = %3
  %.not10 = icmp eq i64 %1, 0
  br i1 %.not10, label %._crit_edge, label %.lr.ph

._crit_edge:                                      ; preds = %.lr.ph, %.preheader
  %.not.i = icmp eq ptr %2, null
  br i1 %.not.i, label %7, label %4

4:                                                ; preds = %._crit_edge
  %5 = getelementptr inbounds nuw i8, ptr %2, i64 40
  %6 = load ptr, ptr %5, align 8, !tbaa !38
  tail call void %6(ptr noundef nonnull %2, ptr noundef nonnull %0) #17
  br label %pmix_tma_free.exit

7:                                                ; preds = %._crit_edge
  tail call void @free(ptr noundef nonnull %0) #17
  br label %pmix_tma_free.exit

.lr.ph:                                           ; preds = %.preheader, %.lr.ph
  %.09 = phi i64 [ %9, %.lr.ph ], [ 0, %.preheader ]
  %8 = getelementptr inbounds nuw %struct.pmix_value, ptr %0, i64 %.09
  tail call fastcc void @pmix_bfrops_base_tma_value_destruct(ptr noundef nonnull %8, ptr noundef %2)
  %9 = add nuw i64 %.09, 1
  %exitcond.not = icmp eq i64 %9, %1
  br i1 %exitcond.not, label %._crit_edge, label %.lr.ph, !llvm.loop !159

pmix_tma_free.exit:                               ; preds = %7, %4, %3
  ret void
}